; ModuleID = '34/2023.c'
source_filename = "34/2023.c"
target datalayout = "e-m:e-p270:32:32-p271:32:32-p272:64:64-i64:64-f80:128-n8:16:32:64-S128"
target triple = "x86_64-pc-linux-gnu"

@.str = private unnamed_addr constant [3 x i8] c"%d\00", align 1
@.str.1 = private unnamed_addr constant [5 x i8] c"End\0A\00", align 1
@.str.2 = private unnamed_addr constant [11 x i8] c"%d*3+1=%d\0A\00", align 1
@.str.3 = private unnamed_addr constant [9 x i8] c"%d/2=%d\0A\00", align 1

; Function Attrs: noinline nounwind uwtable
define dso_local i32 @main() #0 {
  %1 = alloca i32, align 4
  %2 = alloca i32, align 4
  %3 = alloca i32, align 4
  store i32 0, i32* %1, align 4
  %4 = call i32 (i8*, ...) @__isoc99_scanf(i8* getelementptr inbounds ([3 x i8], [3 x i8]* @.str, i64 0, i64 0), i32* %2)
  br label %5

5:                                                ; preds = %28, %14, %0
  %6 = load i32, i32* %2, align 4
  %7 = icmp eq i32 %6, 1
  br i1 %7, label %8, label %10

8:                                                ; preds = %5
  %9 = call i32 (i8*, ...) @printf(i8* getelementptr inbounds ([5 x i8], [5 x i8]* @.str.1, i64 0, i64 0))
  br label %37

10:                                               ; preds = %5
  %11 = load i32, i32* %2, align 4
  %12 = srem i32 %11, 2
  %13 = icmp eq i32 %12, 1
  br i1 %13, label %14, label %24

14:                                               ; preds = %10
  %15 = load i32, i32* %2, align 4
  %16 = mul nsw i32 %15, 3
  %17 = add nsw i32 %16, 1
  store i32 %17, i32* %3, align 4
  %18 = load i32, i32* %2, align 4
  %19 = load i32, i32* %3, align 4
  %20 = call i32 (i8*, ...) @printf(i8* getelementptr inbounds ([11 x i8], [11 x i8]* @.str.2, i64 0, i64 0), i32 %18, i32 %19)
  %21 = load i32, i32* %2, align 4
  %22 = mul nsw i32 %21, 3
  %23 = add nsw i32 %22, 1
  store i32 %23, i32* %2, align 4
  br label %5

24:                                               ; preds = %10
  %25 = load i32, i32* %2, align 4
  %26 = srem i32 %25, 2
  %27 = icmp eq i32 %26, 0
  br i1 %27, label %28, label %36

28:                                               ; preds = %24
  %29 = load i32, i32* %2, align 4
  %30 = sdiv i32 %29, 2
  store i32 %30, i32* %3, align 4
  %31 = load i32, i32* %2, align 4
  %32 = load i32, i32* %3, align 4
  %33 = call i32 (i8*, ...) @printf(i8* getelementptr inbounds ([9 x i8], [9 x i8]* @.str.3, i64 0, i64 0), i32 %31, i32 %32)
  %34 = load i32, i32* %2, align 4
  %35 = sdiv i32 %34, 2
  store i32 %35, i32* %2, align 4
  br label %5

36:                                               ; preds = %24
  br label %37

37:                                               ; preds = %36, %8
  %38 = load i32, i32* %1, align 4
  ret i32 %38
}

declare dso_local i32 @__isoc99_scanf(i8*, ...) #1

declare dso_local i32 @printf(i8*, ...) #1


!llvm.module.flags = !{!0}
!llvm.ident = !{!1}

!0 = !{i32 1, !"wchar_size", i32 4}
!1 = !{!"clang version 10.0.0-4ubuntu1 "}
